target datalayout = "e-m:e-p270:32:32-p271:32:32-p272:64:64-i64:64-i128:128-f80:128-n8:16:32:64-S128"
target triple = "x86_64-pc-linux-gnu"

%"class.std::__cxx11::basic_string" = type { %"struct.std::__cxx11::basic_string<char>::_Alloc_hider", i64, %union.anon }
%"struct.std::__cxx11::basic_string<char>::_Alloc_hider" = type { ptr }
%union.anon = type { i64, [8 x i8] }
%"class.std::basic_istream.base" = type { ptr, i64 }
%"class.std::__cxx11::basic_stringbuf" = type { %"class.std::basic_streambuf", i32, %"class.std::__cxx11::basic_string" }
%"class.std::basic_streambuf" = type { ptr, ptr, ptr, ptr, ptr, ptr, ptr, %"class.std::locale" }
%"class.std::locale" = type { ptr }
%"class.std::basic_ios" = type { %"class.std::ios_base", ptr, i8, i8, ptr, ptr, ptr, ptr }
%"class.std::ios_base" = type { ptr, i64, i64, i32, i32, i32, ptr, %"struct.std::ios_base::_Words", [8 x %"struct.std::ios_base::_Words"], i32, ptr, %"class.std::locale" }
%"struct.std::ios_base::_Words" = type { ptr, i64 }
%"class.std::__cxx11::basic_istringstream" = type { %"class.std::basic_istream.base", %"class.std::__cxx11::basic_stringbuf", %"class.std::basic_ios" }

; Function Attrs: inlinehint mustprogress nounwind uwtable
define linkonce_odr noundef i32 @_ZStanSt12_Ios_IostateS_(i32 noundef %0, i32 noundef %1) #5 comdat {
  %3 = alloca i32, align 4
  %4 = alloca i32, align 4
  store i32 %0, ptr %3, align 4, !tbaa !178
  store i32 %1, ptr %4, align 4, !tbaa !178
  %5 = load i32, ptr %3, align 4, !tbaa !178
  %6 = load i32, ptr %4, align 4, !tbaa !178
  %7 = and i32 %5, %6
  ret i32 %7
}

; Function Attrs: inlinehint mustprogress nounwind uwtable
define linkonce_odr noundef i32 @_ZStorSt12_Ios_IostateS_(i32 noundef %0, i32 noundef %1) #5 comdat {
  %3 = alloca i32, align 4
  %4 = alloca i32, align 4
  store i32 %0, ptr %3, align 4, !tbaa !178
  store i32 %1, ptr %4, align 4, !tbaa !178
  %5 = load i32, ptr %3, align 4, !tbaa !178
  %6 = load i32, ptr %4, align 4, !tbaa !178
  %7 = or i32 %5, %6
  ret i32 %7
}

; Function Attrs: mustprogress nounwind uwtable
define available_externally noundef i32 @_ZNKSt9basic_iosIcSt11char_traitsIcEE7rdstateEv(ptr noundef nonnull align 8 dereferenceable(264) %0) #2 align 2 {
  %2 = alloca ptr, align 8
  store ptr %0, ptr %2, align 8, !tbaa !26
  %3 = load ptr, ptr %2, align 8
  %4 = getelementptr inbounds nuw %"class.std::ios_base", ptr %3, i32 0, i32 5
  %5 = load i32, ptr %4, align 8, !tbaa !179
  ret i32 %5
}

; Function Attrs: mustprogress nounwind uwtable
define available_externally noundef zeroext i1 @_ZNKSt9basic_iosIcSt11char_traitsIcEE3eofEv(ptr noundef nonnull align 8 dereferenceable(264) %0) #2 align 2 {
  %2 = alloca ptr, align 8
  store ptr %0, ptr %2, align 8, !tbaa !26
  %3 = load ptr, ptr %2, align 8
  %4 = call noundef i32 @_ZNKSt9basic_iosIcSt11char_traitsIcEE7rdstateEv(ptr noundef nonnull align 8 dereferenceable(264) %3)
  %5 = call noundef i32 @_ZStanSt12_Ios_IostateS_(i32 noundef %4, i32 noundef 2)
  %6 = icmp ne i32 %5, 0
  ret i1 %6
}

; Function Attrs: mustprogress uwtable
define available_externally noundef zeroext i1 @_ZNKSt9basic_iosIcSt11char_traitsIcEE4failEv(ptr noundef nonnull align 8 dereferenceable(264) %0) #3 align 2 {
  %2 = alloca ptr, align 8
  store ptr %0, ptr %2, align 8, !tbaa !26
  %3 = load ptr, ptr %2, align 8
  %4 = call noundef i32 @_ZNKSt9basic_iosIcSt11char_traitsIcEE7rdstateEv(ptr noundef nonnull align 8 dereferenceable(264) %3)
  %5 = call noundef i32 @_ZStorSt12_Ios_IostateS_(i32 noundef 1, i32 noundef 4)
  %6 = call noundef i32 @_ZStanSt12_Ios_IostateS_(i32 noundef %4, i32 noundef %5)
  %7 = icmp ne i32 %6, 0
  ret i1 %7
}

; Function Attrs: mustprogress uwtable
define noundef i32 @_ZN7rocksdb24ParseTimeStringToSecondsERKNSt7__cxx1112basic_stringIcSt11char_traitsIcESaIcEEE(ptr noundef nonnull align 8 dereferenceable(32) %0) #3 personality ptr @__gxx_personality_v0 {
  %2 = alloca i32, align 4
  %3 = alloca ptr, align 8
  %4 = alloca i32, align 4
  %5 = alloca i32, align 4
  %6 = alloca i8, align 1
  %7 = alloca %"class.std::__cxx11::basic_istringstream", align 8
  %8 = alloca ptr, align 8
  %9 = alloca i32, align 4
  %10 = alloca i32, align 4
  store ptr %0, ptr %3, align 8, !tbaa !9
  call void @llvm.lifetime.start.p0(i64 4, ptr %4) #4
  call void @llvm.lifetime.start.p0(i64 4, ptr %5) #4
  call void @llvm.lifetime.start.p0(i64 1, ptr %6) #4
  call void @llvm.lifetime.start.p0(i64 384, ptr %7) #4
  %11 = load ptr, ptr %3, align 8, !tbaa !9
  call void @_ZNSt7__cxx1119basic_istringstreamIcSt11char_traitsIcESaIcEEC1ERKNS_12basic_stringIcS2_S3_EESt13_Ios_Openmode(ptr noundef nonnull align 8 dereferenceable(120) %7, ptr noundef nonnull align 8 dereferenceable(32) %11, i32 noundef 8)
  %12 = invoke noundef nonnull align 8 dereferenceable(16) ptr @_ZNSirsERi(ptr noundef nonnull align 8 dereferenceable(16) %7, ptr noundef nonnull align 4 dereferenceable(4) %4)
          to label %13 unwind label %36

13:                                               ; preds = %1
  %14 = invoke noundef nonnull align 8 dereferenceable(16) ptr @_ZStrsIcSt11char_traitsIcEERSt13basic_istreamIT_T0_ES6_RS3_(ptr noundef nonnull align 8 dereferenceable(16) %12, ptr noundef nonnull align 1 dereferenceable(1) %6)
          to label %15 unwind label %36

15:                                               ; preds = %13
  %16 = invoke noundef nonnull align 8 dereferenceable(16) ptr @_ZNSirsERi(ptr noundef nonnull align 8 dereferenceable(16) %14, ptr noundef nonnull align 4 dereferenceable(4) %5)
          to label %17 unwind label %36

17:                                               ; preds = %15
  %18 = load ptr, ptr %7, align 8, !tbaa !16
  %19 = getelementptr i8, ptr %18, i64 -24
  %20 = load i64, ptr %19, align 8
  %21 = getelementptr inbounds i8, ptr %7, i64 %20
  %22 = invoke noundef zeroext i1 @_ZNKSt9basic_iosIcSt11char_traitsIcEE4failEv(ptr noundef nonnull align 8 dereferenceable(264) %21)
          to label %23 unwind label %36

23:                                               ; preds = %17
  br i1 %22, label %35, label %24

24:                                               ; preds = %23
  %25 = load ptr, ptr %7, align 8, !tbaa !16
  %26 = getelementptr i8, ptr %25, i64 -24
  %27 = load i64, ptr %26, align 8
  %28 = getelementptr inbounds i8, ptr %7, i64 %27
  %29 = invoke noundef zeroext i1 @_ZNKSt9basic_iosIcSt11char_traitsIcEE3eofEv(ptr noundef nonnull align 8 dereferenceable(264) %28)
          to label %30 unwind label %36

30:                                               ; preds = %24
  br i1 %29, label %31, label %35

31:                                               ; preds = %30
  %32 = load i8, ptr %6, align 1, !tbaa !15
  %33 = sext i8 %32 to i32
  %34 = icmp ne i32 %33, 58
  br i1 %34, label %35, label %40

35:                                               ; preds = %31, %30, %23
  store i32 -1, ptr %2, align 4
  store i32 1, ptr %10, align 4
  br label %59

36:                                               ; preds = %24, %17, %15, %13, %1
  %37 = landingpad { ptr, i32 }
          cleanup
  %38 = extractvalue { ptr, i32 } %37, 0
  store ptr %38, ptr %8, align 8
  %39 = extractvalue { ptr, i32 } %37, 1
  store i32 %39, ptr %9, align 4
  call void @_ZNSt7__cxx1119basic_istringstreamIcSt11char_traitsIcESaIcEED1Ev(ptr noundef nonnull align 8 dereferenceable(120) %7) #4
  call void @llvm.lifetime.end.p0(i64 384, ptr %7) #4
  call void @llvm.lifetime.end.p0(i64 1, ptr %6) #4
  call void @llvm.lifetime.end.p0(i64 4, ptr %5) #4
  call void @llvm.lifetime.end.p0(i64 4, ptr %4) #4
  br label %61

40:                                               ; preds = %31
  %41 = load i32, ptr %4, align 4, !tbaa !34
  %42 = icmp slt i32 %41, 0
  br i1 %42, label %52, label %43

43:                                               ; preds = %40
  %44 = load i32, ptr %4, align 4, !tbaa !34
  %45 = icmp sgt i32 %44, 23
  br i1 %45, label %52, label %46

46:                                               ; preds = %43
  %47 = load i32, ptr %5, align 4, !tbaa !34
  %48 = icmp slt i32 %47, 0
  br i1 %48, label %52, label %49

49:                                               ; preds = %46
  %50 = load i32, ptr %5, align 4, !tbaa !34
  %51 = icmp sgt i32 %50, 59
  br i1 %51, label %52, label %53

52:                                               ; preds = %49, %46, %43, %40
  store i32 -1, ptr %2, align 4
  store i32 1, ptr %10, align 4
  br label %59

53:                                               ; preds = %49
  %54 = load i32, ptr %4, align 4, !tbaa !34
  %55 = mul nsw i32 %54, 3600
  %56 = load i32, ptr %5, align 4, !tbaa !34
  %57 = mul nsw i32 %56, 60
  %58 = add nsw i32 %55, %57
  store i32 %58, ptr %2, align 4
  store i32 1, ptr %10, align 4
  br label %59

59:                                               ; preds = %53, %52, %35
  call void @_ZNSt7__cxx1119basic_istringstreamIcSt11char_traitsIcESaIcEED1Ev(ptr noundef nonnull align 8 dereferenceable(120) %7) #4
  call void @llvm.lifetime.end.p0(i64 384, ptr %7) #4
  call void @llvm.lifetime.end.p0(i64 1, ptr %6) #4
  call void @llvm.lifetime.end.p0(i64 4, ptr %5) #4
  call void @llvm.lifetime.end.p0(i64 4, ptr %4) #4
  %60 = load i32, ptr %2, align 4
  ret i32 %60

61:                                               ; preds = %36
  %62 = load ptr, ptr %8, align 8
  %63 = load i32, ptr %9, align 4
  %64 = insertvalue { ptr, i32 } poison, ptr %62, 0
  %65 = insertvalue { ptr, i32 } %64, i32 %63, 1
  resume { ptr, i32 } %65
}