; Function Attrs: mustprogress uwtable
define noundef range(i32 -1, 86341) i32 @_ZN7rocksdb24ParseTimeStringToSecondsERKNSt7__cxx1112basic_stringIcSt11char_traitsIcESaIcEEE(ptr noundef nonnull align 8 dereferenceable(32) %0) local_unnamed_addr #3 personality ptr @__gxx_personality_v0 {
  %2 = alloca i32, align 4
  %3 = alloca i32, align 4
  %4 = alloca i8, align 1
  %5 = alloca %"class.std::__cxx11::basic_istringstream", align 8
  call void @llvm.lifetime.start.p0(i64 4, ptr nonnull %2) #26
  call void @llvm.lifetime.start.p0(i64 4, ptr nonnull %3) #26
  call void @llvm.lifetime.start.p0(i64 1, ptr nonnull %4) #26
  call void @llvm.lifetime.start.p0(i64 384, ptr nonnull %5) #26
  call void @_ZNSt7__cxx1119basic_istringstreamIcSt11char_traitsIcESaIcEEC1ERKNS_12basic_stringIcS2_S3_EESt13_Ios_Openmode(ptr noundef nonnull align 8 dereferenceable(120) %5, ptr noundef nonnull align 8 dereferenceable(32) %0, i32 noundef 8)
  %6 = invoke noundef nonnull align 8 dereferenceable(16) ptr @_ZNSirsERi(ptr noundef nonnull align 8 dereferenceable(16) %5, ptr noundef nonnull align 4 dereferenceable(4) %2)
          to label %7 unwind label %24

7:                                                ; preds = %1
  %8 = invoke noundef nonnull align 8 dereferenceable(16) ptr @_ZStrsIcSt11char_traitsIcEERSt13basic_istreamIT_T0_ES6_RS3_(ptr noundef nonnull align 8 dereferenceable(16) %6, ptr noundef nonnull align 1 dereferenceable(1) %4)
          to label %9 unwind label %24

9:                                                ; preds = %7
  %10 = invoke noundef nonnull align 8 dereferenceable(16) ptr @_ZNSirsERi(ptr noundef nonnull align 8 dereferenceable(16) %8, ptr noundef nonnull align 4 dereferenceable(4) %3)
          to label %11 unwind label %24

11:                                               ; preds = %9
  %12 = load ptr, ptr %5, align 8, !tbaa !14
  %13 = getelementptr i8, ptr %12, i64 -24
  %14 = load i64, ptr %13, align 8
  %15 = getelementptr inbounds i8, ptr %5, i64 %14
  %16 = getelementptr inbounds nuw i8, ptr %15, i64 32
  %17 = load i32, ptr %16, align 8, !tbaa !16
  %18 = and i32 %17, 5
  %.not = icmp eq i32 %18, 0
  br i1 %.not, label %19, label %34

19:                                               ; preds = %11
  %20 = and i32 %17, 2
  %21 = icmp ne i32 %20, 0
  %22 = load i8, ptr %4, align 1
  %23 = icmp eq i8 %22, 58
  %or.cond.not = select i1 %21, i1 %23, i1 false
  br i1 %or.cond.not, label %26, label %34

24:                                               ; preds = %9, %7, %1
  %25 = landingpad { ptr, i32 }
          cleanup
  call void @_ZNSt7__cxx1119basic_istringstreamIcSt11char_traitsIcESaIcEED1Ev(ptr noundef nonnull align 8 dereferenceable(120) %5) #26
  call void @llvm.lifetime.end.p0(i64 384, ptr nonnull %5) #26
  call void @llvm.lifetime.end.p0(i64 1, ptr nonnull %4) #26
  call void @llvm.lifetime.end.p0(i64 4, ptr nonnull %3) #26
  call void @llvm.lifetime.end.p0(i64 4, ptr nonnull %2) #26
  resume { ptr, i32 } %25

26:                                               ; preds = %19
  %27 = load i32, ptr %2, align 4, !tbaa !50
  %or.cond4 = icmp ugt i32 %27, 23
  %28 = load i32, ptr %3, align 4
  %29 = icmp ugt i32 %28, 59
  %or.cond8 = select i1 %or.cond4, i1 true, i1 %29
  br i1 %or.cond8, label %34, label %30

30:                                               ; preds = %26
  %31 = mul nuw nsw i32 %27, 3600
  %32 = mul nuw nsw i32 %28, 60
  %33 = add nuw nsw i32 %32, %31
  br label %34

34:                                               ; preds = %26, %11, %19, %30
  %.0 = phi i32 [ %33, %30 ], [ -1, %19 ], [ -1, %11 ], [ -1, %26 ]
  %35 = load ptr, ptr @_ZTTNSt7__cxx1119basic_istringstreamIcSt11char_traitsIcESaIcEEE, align 8
  store ptr %35, ptr %5, align 8, !tbaa !14
  %36 = load ptr, ptr getelementptr inbounds nuw (i8, ptr @_ZTTNSt7__cxx1119basic_istringstreamIcSt11char_traitsIcESaIcEEE, i64 24), align 8
  %37 = getelementptr i8, ptr %35, i64 -24
  %38 = load i64, ptr %37, align 8
  %39 = getelementptr inbounds i8, ptr %5, i64 %38
  store ptr %36, ptr %39, align 8, !tbaa !14
  %40 = getelementptr inbounds nuw i8, ptr %5, i64 16
  store ptr getelementptr inbounds nuw inrange(-16, 112) (i8, ptr @_ZTVNSt7__cxx1115basic_stringbufIcSt11char_traitsIcESaIcEEE, i64 16), ptr %40, align 8, !tbaa !14
  %41 = getelementptr inbounds nuw i8, ptr %5, i64 88
  %42 = load ptr, ptr %41, align 8, !tbaa !30
  %43 = getelementptr inbounds nuw i8, ptr %5, i64 104
  %44 = icmp eq ptr %42, %43
  br i1 %44, label %_ZNKSt7__cxx1112basic_stringIcSt11char_traitsIcESaIcEE11_M_is_localEv.exit.thread.i.i.i.i.i, label %_ZNKSt7__cxx1112basic_stringIcSt11char_traitsIcESaIcEE11_M_is_localEv.exit.i.i.i.i.i

_ZNKSt7__cxx1112basic_stringIcSt11char_traitsIcESaIcEE11_M_is_localEv.exit.thread.i.i.i.i.i: ; preds = %34
  %45 = getelementptr inbounds nuw i8, ptr %5, i64 96
  %46 = load i64, ptr %45, align 8, !tbaa !10
  %47 = icmp ult i64 %46, 16
  call void @llvm.assume(i1 %47)
  br label %_ZNSt7__cxx1119basic_istringstreamIcSt11char_traitsIcESaIcEED1Ev.exit

_ZNKSt7__cxx1112basic_stringIcSt11char_traitsIcESaIcEE11_M_is_localEv.exit.i.i.i.i.i: ; preds = %34
  %48 = load i64, ptr %43, align 8, !tbaa !13
  %49 = add i64 %48, 1
  call void @_ZdlPvm(ptr noundef %42, i64 noundef %49) #27
  br label %_ZNSt7__cxx1119basic_istringstreamIcSt11char_traitsIcESaIcEED1Ev.exit

_ZNSt7__cxx1119basic_istringstreamIcSt11char_traitsIcESaIcEED1Ev.exit: ; preds = %_ZNKSt7__cxx1112basic_stringIcSt11char_traitsIcESaIcEE11_M_is_localEv.exit.thread.i.i.i.i.i, %_ZNKSt7__cxx1112basic_stringIcSt11char_traitsIcESaIcEE11_M_is_localEv.exit.i.i.i.i.i
  store ptr getelementptr inbounds nuw inrange(-16, 112) (i8, ptr @_ZTVSt15basic_streambufIcSt11char_traitsIcEE, i64 16), ptr %40, align 8, !tbaa !14
  %50 = getelementptr inbounds nuw i8, ptr %5, i64 72
  call void @_ZNSt6localeD1Ev(ptr noundef nonnull align 8 dereferenceable(8) %50) #26
  %51 = load ptr, ptr getelementptr inbounds nuw (i8, ptr @_ZTTNSt7__cxx1119basic_istringstreamIcSt11char_traitsIcESaIcEEE, i64 8), align 8
  store ptr %51, ptr %5, align 8, !tbaa !14
  %52 = load ptr, ptr getelementptr inbounds nuw (i8, ptr @_ZTTNSt7__cxx1119basic_istringstreamIcSt11char_traitsIcESaIcEEE, i64 16), align 8
  %53 = getelementptr i8, ptr %51, i64 -24
  %54 = load i64, ptr %53, align 8
  %55 = getelementptr inbounds i8, ptr %5, i64 %54
  store ptr %52, ptr %55, align 8, !tbaa !14
  %56 = getelementptr inbounds nuw i8, ptr %5, i64 8
  store i64 0, ptr %56, align 8, !tbaa !32
  %57 = getelementptr inbounds nuw i8, ptr %5, i64 120
  call void @_ZNSt8ios_baseD2Ev(ptr noundef nonnull align 8 dereferenceable(264) %57) #26
  call void @llvm.lifetime.end.p0(i64 384, ptr nonnull %5) #26
  call void @llvm.lifetime.end.p0(i64 1, ptr nonnull %4) #26
  call void @llvm.lifetime.end.p0(i64 4, ptr nonnull %3) #26
  call void @llvm.lifetime.end.p0(i64 4, ptr nonnull %2) #26
  ret i32 %.0
}